(dp0
VSoc_1
p1
(lp2
F0.0108332101
aF0.0226985761
aF0.032825929
aF0.0123187162
aF0.0100366218
aF0.1510886609
aF0.0231637005
aF0.0079356222
aF0.0452556706
aF0.0162969933
aF1.0
aF0.0025437959
aF0.0633580242
aF0.0218411423
aF0.0814262609
aF0.0219461558
aF0.0170214283
aF0.0393822027
aF0.0060325748
aF0.0069362461
aF0.0187895475
aF0.017895013
aF0.0039323988
aF0.0066381787
aF0.0371910891
aF0.3559525392
aF0.0027866762
aF0.0007478246
aF0.0134092428
aF0.005271318
aF0.1319105765
aF0.0061669964
aF0.0083162607
aF0.0583991706
aF0.0605304314
aF0.0223475197
aF0.0124924121
aF0.0277766598
aF0.0083536904
aF0.0352577044
aF0.0047905425
aF0.030126712
aF0.105106956
aF0.0076047368
aF0.027672232
aF0.0032395742
aF0.0358755765
aF0.0169152424
aF0.0335715882
aF0.0983575009
aF0.0059858405
aF0.0065307609
aF0.0029490249
aF2.67623e-05
aF0.0012389691
aF0.1714385505
aF0.0337714949
aF0.0033215814
aF0.0527459815
aF0.0031265544
aF0.016546202
aF0.0212762488
aF0.0367886216
aF5.2974e-05
aF0.0013031249
aF0.007213827
aF0.0017434491
aF0.0011401127
aF0.0014243861
aF0.0105160441
aF0.0032618339
aF0.0056764209
aF0.0336762327
aF0.0053262307
aF0.015204104
aF0.0328764364
aF0.0012766981
aF0.0066165056
aF0.0002441991
aF0.0004465498
aF0.0022017265
aF0.0193926795
aF0.0046650056
aF0.0205487685
aF0.0357319281
aF0.0009379702
aF0.0211072593
aF0.0083851931
aF0.0334039629
aF0.0097290576
aF0.0225487842
aF0.0275507099
aF0.0114418864
aF0.0095317621
aF0.0237881032
aF0.0108053523
aF0.4749345413
aF0.0113709189
aF0.0041042752
aF0.0012782447
aF0.0028255296
aF0.0083329443
aF0.002738115
aF0.0016476609
aF0.015992649
aF0.0024792435
aF0.0
aF0.0038378271
aF0.0120555293
aF0.0326487719
aF0.0281494553
aF0.0074743548
aF0.0101876725
aF0.7240202358
aF0.0044843893
aF0.0027889504
aF0.0193011375
aF0.0128443215
aF0.0176704511
aF0.0347415821
aF0.0040341763
aF0.0103593778
aF0.0081941878
aF0.0126911906
aF0.0054630225
aF0.0260109138
aF0.0105997806
aF0.0014273722
aF0.0038594956
aF0.0089237569
aF0.0045620998
aF0.0080304561
aF0.0024897467
aF0.0041053173
aF0.0122660749
aF0.0271227709
aF0.00141559
aF0.0057274554
aF0.0005710689
aF0.0178790958
aF0.0037885524
aF0.0075350281
aF0.0022405581
aF0.0006161753
aF0.0105916438
aF0.0023553491
aF0.0030562415
aF0.0133689183
aF0.0185646839
aF0.0108705468
aF0.0109218422
aF0.0011932167
aF0.0184164299
aF0.0200020559
aF0.0046966129
aF0.000941123
aF0.0030557483
aF7.80412e-05
aF0.0006870756
aF0.0016352818
aF0.0091803693
aF0.0003445124
aF0.0347183528
aF0.0060999647
aF0.009239272
aF0.1902285389
aF0.0048069301
aF0.0146357537
aF0.0035436817
aF0.012746875
aF0.0029175932
aF0.0121216632
aF1.81664e-05
aF0.000584385
aF0.0195572097
aF0.0136052874
aF0.0204239823
aF0.000214027
aF0.0690240568
aF0.0208868096
aF0.0034432817
aF0.0079478901
aF0.0207103221
aF0.0033096192
aF0.0034221224
aF0.0082147875
aF0.0003932204
aF0.0463905854
aF0.0010865181
aF0.010743193
aF0.0069069261
aF0.0042352843
aF0.0076455201
aF0.0082735836
aF0.0107671425
aF0.0026596319
aF0.003892017
aF0.0159563306
aF0.0244682198
aF0.0089451607
aF1.26864e-05
aF0.0163419373
aF0.0055485087
aF0.0279847855
aF0.0348064918
aF0.0015927597
aF0.0120994443
aF0.0010667624
aF0.0015456218
aF0.0044273726
aF0.0330030303
aF0.0006885534
aF0.0056433193
aF0.0026568419
aF0.0003211946
aF0.0453308838
aF0.0032317688
aF0.01579588
aF0.0137742694
aF0.0063402914
aF0.0155239704
aF0.0022338652
aF0.0221027877
aF0.0020185201
aF0.0017956707
aF0.0093792157
aF0.0032634554
aF0.047152902
aF0.2892397118
aF0.0132076131
aF0.0624274241
aF0.01581562
aF0.0005468678
aF0.0025334581
aF0.0012005795
aF0.0229626094
aF0.0029664245
aF0.0010508845
aF0.025529877
asVSoc_3
p3
(lp4
F0.0026421745
aF0.0084692067
aF0.0381347182
aF0.0169017029
aF0.0371182675
aF0.0023962997
aF0.0050932361
aF0.0545038496
aF0.0078573184
aF0.0188607414
aF0.1053232557
aF0.469984697
aF0.0631738947
aF0.0427862193
aF0.0348755445
aF0.0929621443
aF0.0067981775
aF0.007110141
aF0.1984498509
aF0.0015187556
aF0.0673095375
aF0.032635071
aF0.0136280381
aF0.0263098297
aF0.0336426427
aF0.1675719279
aF0.0143992494
aF0.0080490433
aF0.008009507
aF0.0220578935
aF0.0237011075
aF0.0090344522
aF0.0483817903
aF0.0096961705
aF0.0852367338
aF0.0143374231
aF0.0770384463
aF0.0577607287
aF0.0780440638
aF0.1698838052
aF0.2053940021
aF0.0551049293
aF0.0141471638
aF0.0560156678
aF0.0340898474
aF1.0
aF0.0114753519
aF0.0142500225
aF0.0266857598
aF0.2153373107
aF0.0162912822
aF0.0110418201
aF0.0209528866
aF0.044444738
aF0.271256775
aF0.0659052534
aF0.1865367771
aF0.0279631797
aF0.4250455443
aF0.0316207531
aF0.0343507413
aF0.0324086189
aF0.0234947716
aF0.0024713586
aF0.0044063185
aF0.0184286481
aF0.0156408932
aF0.118754359
aF0.035729827
aF0.0118482147
aF0.0720904728
aF0.0060228674
aF0.0463831024
aF0.010156981
aF0.0173836037
aF0.0116961724
aF0.0198366957
aF0.0136780223
aF0.0299458054
aF0.030003802
aF0.0984763774
aF0.023185491
aF0.0312068755
aF0.0100855038
aF0.0284514722
aF0.0068813148
aF0.0054317009
aF0.0266289609
aF0.0083361386
aF0.2427239554
aF0.0087064044
aF0.0260965627
aF0.0230244235
aF0.0085581344
aF0.0046351267
aF0.0095434821
aF0.0157278991
aF0.0327540385
aF0.024361761
aF0.0042449485
aF0.0247445786
aF0.0577398327
aF0.0136065507
aF0.0160072217
aF0.0084682717
aF0.0127250753
aF0.0041124988
aF0.0260543922
aF0.036616227
aF0.0244495285
aF0.0093606056
aF0.0165616205
aF0.0384358638
aF0.0265387406
aF0.0136101024
aF0.0402115146
aF0.219674903
aF0.0270492671
aF0.0150723853
aF0.0171215444
aF0.0281541884
aF0.0158471091
aF0.0506435865
aF0.0239761987
aF0.0036845982
aF0.2049978513
aF0.3563956694
aF0.0199816457
aF0.0402741647
aF0.0310569913
aF0.0350198701
aF0.0085813182
aF0.020499249
aF0.0250682552
aF0.0076061525
aF0.0579471539
aF0.0228008444
aF0.0310148433
aF0.0102862165
aF0.2566238308
aF0.0146083267
aF0.0073899377
aF0.0168641437
aF0.0116701838
aF0.0033804009
aF0.012075517
aF0.031990814
aF0.1061336768
aF0.0205914188
aF0.0250805784
aF0.0649239401
aF0.0741613321
aF0.0237087592
aF0.0204315232
aF0.0246310818
aF0.032014278
aF0.0148407639
aF0.0078152789
aF0.0918196727
aF0.0114656913
aF0.0033844337
aF0.0079009616
aF0.0203614645
aF0.0113809332
aF0.0142896193
aF0.0470444235
aF0.0102859138
aF0.0086325392
aF0.0046749423
aF0.0146877359
aF0.0194269965
aF0.0070163387
aF0.0054953974
aF0.0761643732
aF0.019253485
aF0.0512931798
aF0.0220526693
aF0.006568071
aF0.0572039599
aF0.009325418
aF0.0181266835
aF0.0045607316
aF0.0148797704
aF0.0189309782
aF0.0134936655
aF0.0084258398
aF0.0131459029
aF0.0221097811
aF0.0117016339
aF0.0354446194
aF0.0008222146
aF0.0257034656
aF0.0236642495
aF0.0069598429
aF0.2224364165
aF0.0193074621
aF0.0334930986
aF0.2051689696
aF0.0080001226
aF0.0053029865
aF0.0040945424
aF0.0589603541
aF0.0660601363
aF0.0141461332
aF0.0226563734
aF0.0112152997
aF0.0168480611
aF0.0006723967
aF0.0071741496
aF0.0098253513
aF0.3915469661
aF0.0155609055
aF0.0475309199
aF0.0036445446
aF0.0494639573
aF0.0066075963
aF0.0121902132
aF0.0270797285
aF0.0110527391
aF0.0300551157
aF0.0090911115
aF0.0056567483
aF0.0588706576
aF0.0508224412
aF0.0025648066
aF0.0255487998
aF0.0237699969
aF0.002389033
aF0.0919668189
aF0.0121676576
aF0.0238319833
aF0.011089399
aF0.0194888114
aF0.4125193744
aF0.0151065279
aF0.0208578168
aF0.0256439085
aF0.0159365816
aF0.0973290332
asVSoc_2
p5
(lp6
F0.0033788938
aF0.0144309411
aF0.19485177
aF0.0170008324
aF0.0801683979
aF0.0008822473
aF0.0012970234
aF0.0250220093
aF0.0039988178
aF0.0026028916
aF0.4913929633
aF0.0829566238
aF0.0906024322
aF0.0533863145
aF0.0959307218
aF0.2828581243
aF0.0132486353
aF0.0060976599
aF0.0364853952
aF0.0072708502
aF0.1543842859
aF0.0150638317
aF0.2251636377
aF0.0066151545
aF0.0080278945
aF0.3566093864
aF0.0045194848
aF0.0273137388
aF0.0066612556
aF0.0110673047
aF0.1023586074
aF0.0106417318
aF0.1726140289
aF0.0027592121
aF0.1588160312
aF0.0186122711
aF0.015279337
aF0.208645831
aF0.0262181321
aF0.2524044282
aF0.0236349452
aF0.0388249163
aF0.0385141062
aF0.0145074135
aF0.0730729719
aF0.0649336207
aF0.0080269932
aF0.6516948852
aF0.0100803707
aF0.5191977669
aF0.0053927256
aF0.025481162
aF0.0192379598
aF0.0136936078
aF0.1213996366
aF0.1197530242
aF0.2269711265
aF0.0374908507
aF0.3233886343
aF0.011403997
aF0.0083094109
aF0.0082318004
aF0.0152086565
aF0.0662478376
aF0.0058408076
aF0.0209353428
aF0.0501031766
aF0.104212253
aF0.1645793365
aF0.0082320716
aF0.0276451653
aF0.0367413666
aF0.0601625885
aF0.0054439003
aF0.0585786697
aF0.036889449
aF0.0386981915
aF0.0394246427
aF0.1013386944
aF0.0118046894
aF0.0686719019
aF0.0140678584
aF0.0476142844
aF0.0128093377
aF0.041473108
aF0.0289798634
aF0.0355872172
aF0.0223328145
aF0.0275401237
aF0.1589009585
aF0.0603616612
aF0.0870225457
aF0.0535378871
aF0.0578577456
aF0.0081924127
aF0.0156048658
aF0.0284745637
aF0.0319758395
aF0.0074093997
aF0.0057115413
aF0.016915389
aF0.1291621639
aF0.047373543
aF0.0506310461
aF0.0219033023
aF0.1241396832
aF0.0163049674
aF0.0403808821
aF0.1061635686
aF0.0916261906
aF0.4007034241
aF0.0235622564
aF0.2544857965
aF0.1536624843
aF0.0029605844
aF0.0847026983
aF0.1405766653
aF0.0422957214
aF0.0250802273
aF0.0239943623
aF0.0990200813
aF0.0133833042
aF0.0983857992
aF0.0287438919
aF0.006511595
aF0.0537969214
aF0.6345505706
aF0.0129505385
aF0.0259525877
aF0.0087650019
aF0.0410827989
aF0.0462070939
aF0.0686179543
aF0.0443638385
aF0.0513841696
aF0.1261126356
aF0.0318015868
aF0.0763057002
aF0.0533822512
aF0.6710491391
aF0.0060161293
aF0.023784081
aF0.0522074861
aF0.0223327276
aF0.0600281265
aF0.0219138924
aF0.0099712958
aF0.0160544822
aF0.0288526444
aF0.0412207282
aF0.0444669296
aF0.1166152822
aF0.0058418678
aF0.1925592271
aF0.0385409305
aF0.023878267
aF0.0189036071
aF0.0161753745
aF0.096642226
aF0.0526086149
aF0.0073297794
aF0.1301832298
aF0.0717200241
aF0.0491312295
aF0.0290561646
aF0.1224363188
aF0.0212061759
aF0.0079602245
aF0.0436775814
aF0.0201878442
aF0.0610968202
aF0.0124523437
aF0.0070244407
aF0.0922856881
aF0.1200582794
aF0.2298626895
aF0.0732021202
aF0.0953730874
aF0.1002563373
aF0.0016738343
aF0.0104519765
aF0.0068449051
aF0.0087929389
aF0.2306225427
aF0.0162021846
aF0.014985716
aF0.0053091991
aF0.0331837943
aF0.0057749082
aF0.0499396815
aF0.0170182243
aF0.0412569715
aF0.0298177438
aF0.0078942233
aF0.8361430583
aF0.0051365678
aF0.0550159265
aF0.2769457513
aF0.0289071139
aF0.0468023096
aF0.0049266707
aF0.0460499605
aF0.0200618222
aF0.0202137176
aF0.0414804281
aF0.0598358454
aF0.0089071515
aF0.0064413442
aF0.0287845382
aF0.0141666152
aF1.0
aF0.0284731287
aF0.0522612456
aF0.0107433001
aF0.3059905376
aF0.0059488241
aF0.0030501978
aF0.007436613
aF0.0388148807
aF0.1539127015
aF0.0408187912
aF0.0023101711
aF0.0069948493
aF0.0449296927
aF0.0058712784
aF0.0080552822
aF0.0811760391
aF0.1226426215
aF0.1674448959
aF0.0046041877
aF0.0018924879
aF0.0215938043
aF0.0252102643
aF0.0656650882
aF0.0278296752
aF0.0044785727
aF0.0165684146
aF0.0115976319
aF0.4335784401
asVSoc_4
p7
(lp8
F0.9802468811
aF0.9373940145
aF0.985201807
aF0.8542510023
aF0.8809360415
aF0.9676801296
aF0.9494245053
aF0.974329454
aF0.9609366758
aF0.9246474324
aF0.9781856405
aF0.8901128263
aF0.8148924803
aF0.9564461881
aF0.966342415
aF0.9819030487
aF0.9371027377
aF0.9588028751
aF0.8978906066
aF0.9822120347
aF0.9313304277
aF0.9339147654
aF0.9835478881
aF0.9673092569
aF0.9680768758
aF0.9750461845
aF0.9421487101
aF0.9764876066
aF0.9575745213
aF0.9697547649
aF0.964298948
aF0.9558221756
aF0.9749568589
aF0.8860478931
aF0.9851158771
aF0.9341891626
aF0.9417408342
aF0.9474790061
aF0.9520242246
aF0.9404246153
aF0.9587795051
aF0.9198972722
aF0.9550900277
aF0.9238576021
aF0.8810259585
aF0.9615903595
aF0.9630193155
aF0.9641466938
aF0.9234488241
aF0.9771759654
aF0.9878201319
aF0.9228635025
aF0.9615373938
aF0.9701251319
aF0.9375834766
aF0.9607025782
aF0.9164740604
aF0.957916264
aF0.9440246276
aF0.9691212153
aF0.9231845877
aF0.9350365022
aF0.9906341621
aF0.9711493465
aF0.974929955
aF0.9646352307
aF0.8790048815
aF0.9133540173
aF0.9234451691
aF0.9791503679
aF0.9915938261
aF0.9386521682
aF0.9811882754
aF0.9781554556
aF0.9737744639
aF0.9813380197
aF0.9398290738
aF0.9038087638
aF0.8494799294
aF0.9537143069
aF0.9709497745
aF0.8502438539
aF0.9108054909
aF0.9787049598
aF0.9398503466
aF0.9606702632
aF0.9270053875
aF0.9426557502
aF0.9618617699
aF0.9961244194
aF0.921855138
aF0.9441752309
aF0.9789640758
aF0.9609952036
aF0.9706014285
aF0.9516271001
aF0.927224032
aF0.9343924804
aF0.9758022451
aF0.9059445242
aF0.9687573958
aF0.9687821984
aF0.8928327094
aF0.882032369
aF0.9882072735
aF0.974706559
aF0.9411145594
aF0.9526342267
aF0.9535750178
aF0.9912127541
aF0.9738565717
aF0.9736487521
aF0.9901065725
aF0.9817777682
aF0.9322080557
aF0.9420152617
aF0.9654180737
aF0.9854036697
aF0.9092917228
aF0.9133346751
aF0.9552331988
aF0.9855928254
aF0.9123475736
aF0.9305870678
aF0.9972929943
aF0.9685772443
aF0.9616287154
aF0.9622719821
aF0.9954083512
aF0.9678108779
aF0.9245031803
aF0.9731072195
aF0.9004433595
aF0.9745840561
aF0.9423255148
aF0.94641492
aF0.9417741304
aF0.9542678425
aF0.9264350372
aF0.9568999771
aF0.9366570489
aF0.913252158
aF0.9803681855
aF0.9696972525
aF0.9768696328
aF0.9250945619
aF0.9551206944
aF0.9859153264
aF0.9547701673
aF0.9104447428
aF0.9535180128
aF0.9567823751
aF0.8910420201
aF0.9727307786
aF0.9667009925
aF0.9960405643
aF0.9799758022
aF0.9517039067
aF0.9582107439
aF0.9241275863
aF0.9706263361
aF0.9441255937
aF0.9285568364
aF0.9419494064
aF0.9255022191
aF0.8460155808
aF0.9668697871
aF0.9618694303
aF0.9268551319
aF0.9716149769
aF0.9430582181
aF0.9846900251
aF0.9808410582
aF0.9279398297
aF0.9843596327
aF0.9608407386
aF0.9532666003
aF0.9516941616
aF0.8777523046
aF0.9367919611
aF0.9546230229
aF0.9472011213
aF0.9820046278
aF0.9025959659
aF0.96933891
aF0.9862151156
aF0.9654884746
aF0.9329159363
aF0.9794198536
aF0.9397058638
aF0.9791768963
aF0.9539560704
aF0.9318594574
aF0.9564706518
aF0.9444871461
aF0.9565540329
aF0.9449332042
aF0.8857020653
aF0.9383167805
aF0.8769110946
aF0.9855656924
aF0.9808671355
aF0.939928654
aF0.9020029341
aF0.8984891047
aF0.938092844
aF0.9971379849
aF0.8846605522
aF0.9650883091
aF0.9671171072
aF0.9510574352
aF0.9704750422
aF0.9793802129
aF0.9836685854
aF0.9899736206
aF0.958974495
aF0.9261249976
aF0.9710904893
aF0.9292794114
aF0.985162159
aF0.9483775483
aF0.9825584112
aF0.9250098353
aF0.9906339076
aF0.9589585044
aF0.9306046312
aF0.9714947624
aF0.9354341259
aF0.9383038411
aF0.9982491302
aF0.9737387074
aF0.9556324339
aF0.8155799625
aF0.8799905586
aF0.9142827386
aF0.9810552356
aF0.9566670706
aF0.9795951335
aF0.9709240241
asVEco_3
p9
(lp10
F0.6058050978
aF0.5924524128
aF0.2783753373
aF0.3532047856
aF0.3199876845
aF0.4580235782
aF0.8885184825
aF0.352068515
aF0.4018402675
aF0.3395410639
aF0.2936784774
aF0.2593238914
aF0.3313112769
aF0.2988516129
aF0.3067987216
aF0.2758506245
aF0.4924642689
aF0.3356023859
aF0.3148731654
aF0.460413239
aF0.3029587981
aF0.3828941801
aF0.3783668467
aF0.3047636075
aF0.3640296862
aF0.3300413093
aF0.4184252572
aF0.6058756812
aF0.4756112778
aF0.3466191303
aF0.32226064
aF0.6056248933
aF0.3144586748
aF0.3776246509
aF0.2978450896
aF0.342106748
aF0.3728557542
aF0.2744993752
aF0.3091090768
aF0.2546529901
aF0.2823119579
aF0.2887238281
aF0.2926955733
aF0.4400948049
aF0.4045685606
aF0.262645028
aF0.31648766
aF0.8642787655
aF0.2976472413
aF0.3543775032
aF0.5926371473
aF0.366821087
aF0.5657047101
aF0.5325114474
aF0.2974038141
aF0.3292168608
aF0.3323723514
aF0.4454634114
aF0.4195622251
aF0.3552998619
aF0.3580181005
aF0.4711918028
aF0.4144776342
aF0.4707126286
aF0.4363615531
aF0.3582180765
aF0.3702893377
aF0.3392742934
aF0.5146017327
aF0.4455121064
aF0.2905890032
aF0.3944129134
aF0.3259756293
aF0.6458666115
aF0.4470243133
aF0.5824438802
aF0.4578930127
aF0.507313329
aF0.390847916
aF0.378014702
aF0.9041871158
aF0.3323725829
aF0.3519205695
aF0.529164329
aF0.449182679
aF0.4156777892
aF0.357202881
aF0.5046800771
aF0.55653483
aF0.3037300611
aF0.3464441159
aF0.6828203608
aF0.5051639829
aF0.6440468603
aF0.554755038
aF0.5653934194
aF0.8810346619
aF0.2996505955
aF0.3337634091
aF0.7869155835
aF0.471855447
aF0.399569521
aF0.3341911644
aF0.4834563982
aF0.3292416741
aF0.5543863181
aF0.7318804118
aF0.2994645932
aF0.4591610057
aF0.301678808
aF0.4530623923
aF0.3072488958
aF0.3910502523
aF0.3110646806
aF0.5087124004
aF0.5076648095
aF0.3254153009
aF0.7240696565
aF0.3584883597
aF0.4050281626
aF0.4085665003
aF0.4015001656
aF0.3614306355
aF0.5827317765
aF0.525235492
aF0.31485677
aF0.3693877699
aF0.6182301747
aF0.312498451
aF0.5283017247
aF0.3665167016
aF0.4604400293
aF0.4196068373
aF0.340335695
aF0.4339466656
aF0.4047446984
aF0.7891354956
aF0.4207084343
aF0.3253382067
aF0.3037174751
aF0.355858209
aF0.4498578777
aF0.5260284776
aF0.574673967
aF0.4576447632
aF0.4984586274
aF0.8562182159
aF0.3015170205
aF0.3512318936
aF0.4201413566
aF0.3234343585
aF0.4838514586
aF0.4655918896
aF0.2530924716
aF0.7138999611
aF0.5799936149
aF0.3746905764
aF0.4736907115
aF0.3136915541
aF0.4706416418
aF0.6852394926
aF0.6916384705
aF0.559011454
aF0.3483828966
aF0.3558628168
aF0.3327270142
aF0.7495108531
aF0.6015720019
aF0.705222637
aF0.436409853
aF0.3624214749
aF0.3363629989
aF0.5713927882
aF0.3252730717
aF0.4717661251
aF0.3074752939
aF0.4085163112
aF0.5044784319
aF0.4474788711
aF0.3568779951
aF0.3278791973
aF0.5745450013
aF0.3853171526
aF0.6504075707
aF0.4286597267
aF0.7562333
aF0.4931881026
aF0.6954966947
aF0.4948778901
aF0.4904945291
aF0.5122298529
aF0.4348033808
aF0.7904938376
aF0.5028949077
aF0.2597086337
aF0.43551196
aF0.6433063042
aF0.3884079806
aF0.3850474776
aF0.5294752067
aF0.8538981302
aF0.3093989773
aF0.2837233197
aF0.5868789665
aF0.3959100372
aF0.4576306809
aF0.3189141625
aF0.6264976152
aF0.56952444
aF0.6285167398
aF0.3111472204
aF0.3795146781
aF0.4736339759
aF0.5161361203
aF0.3615294928
aF0.5093174634
aF0.435749009
aF0.4152164209
aF0.3813885666
aF0.2864968852
aF0.6041247636
aF0.518876529
aF0.4502190382
aF0.8412223242
aF0.9785815289
aF0.4539609218
aF0.3931594578
aF0.4472365113
aF0.2901543412
aF0.3702703209
aF0.5111784139
aF0.7359227629
aF0.381126072
aF0.2496222038
aF0.5040350453
aF0.5752013162
aF0.3209968369
aF0.3662240632
aF0.2990388809
asVEco_2
p11
(lp12
F0.6074758338
aF0.4935931199
aF0.3617283781
aF0.4679821251
aF0.3840043164
aF0.6337607067
aF0.7214861695
aF0.4568086831
aF0.4950097
aF0.5319455941
aF0.3484730594
aF0.4123090691
aF0.4412129535
aF0.4289599379
aF0.3917694206
aF0.3593601916
aF0.5532686787
aF0.5555858108
aF0.486678507
aF0.4979424648
aF0.4030542997
aF0.48328871
aF0.4713825032
aF0.5112242981
aF0.5367448405
aF0.419274464
aF0.6206474909
aF0.9908443157
aF0.5942266791
aF0.9437826157
aF0.3812785976
aF0.5072843043
aF0.3533153821
aF0.6004264471
aF0.4182045137
aF0.5199421783
aF0.4809864106
aF0.3882169293
aF0.4639947031
aF0.3525366024
aF0.4443733367
aF0.5066460827
aF0.4235421484
aF0.5353514417
aF0.4013401578
aF0.7239956979
aF0.5203321983
aF0.3956916972
aF0.4596547585
aF0.4533933649
aF0.6882621381
aF0.5897011524
aF0.7190417572
aF0.6767634354
aF0.4188875185
aF0.3678567722
aF0.3788530437
aF0.4072014332
aF0.4278485382
aF0.4718375948
aF0.5508567347
aF0.5146421317
aF0.480963501
aF0.461219418
aF0.481576784
aF0.5961901637
aF0.5795026663
aF0.4022239792
aF0.4537649967
aF0.5480732312
aF0.5117684463
aF0.4360047601
aF0.385484685
aF0.6395549771
aF0.4919813511
aF0.6289129511
aF0.5618179336
aF0.5727568157
aF0.4673540697
aF0.6099989083
aF0.4024687822
aF0.5371142594
aF0.5446746274
aF0.6189735274
aF0.5173862651
aF0.4903971147
aF0.4696913875
aF0.5400742911
aF0.5597609015
aF0.7020911132
aF0.4053788879
aF0.3796383374
aF0.4592232354
aF0.5984677799
aF0.2703426673
aF0.4419462061
aF0.5126876161
aF0.430113548
aF0.5287433356
aF0.5596438588
aF0.638573258
aF0.411914314
aF0.5335875174
aF0.5529981386
aF0.5778609649
aF0.4929735095
aF0.5289542782
aF0.5719898538
aF0.3967923685
aF0.3675726736
aF0.3672719004
aF0.480069824
aF0.4037112567
aF0.3743659566
aF0.5297778605
aF0.4619665247
aF0.4752834909
aF0.3999496864
aF0.5177439324
aF0.450910293
aF0.3521347138
aF0.6118777917
aF0.385228595
aF0.393998339
aF0.7127861409
aF0.4326181531
aF0.6110025988
aF0.5797048541
aF0.4083670345
aF0.6422294579
aF0.5126947569
aF0.4405633009
aF0.4276598511
aF0.5639617395
aF0.4411165609
aF0.38001759
aF0.3890231878
aF0.3814655428
aF0.3790408031
aF0.3764177848
aF0.5255621047
aF0.5717775449
aF0.4621247135
aF0.5054459544
aF0.3850744429
aF0.6032696475
aF0.5892642104
aF0.4423739632
aF0.3811308299
aF0.5319397779
aF0.4412561601
aF0.3831290771
aF0.5861321684
aF0.3744654393
aF0.7704288745
aF0.7108449617
aF0.4606827046
aF0.6276007832
aF0.4284255
aF0.5169955844
aF0.6864707606
aF0.4491145034
aF0.4683210959
aF0.3721544028
aF0.4475388604
aF0.3571952052
aF0.630458206
aF0.5306439173
aF0.5465847834
aF0.6164569054
aF0.6188966255
aF0.5743443658
aF0.6460663601
aF0.4912664391
aF0.518205754
aF0.4134069074
aF0.3945306399
aF0.4525587369
aF0.4855135153
aF0.5503105936
aF0.528879123
aF0.5435477768
aF0.5546040703
aF0.4389415683
aF0.5420273011
aF0.5306685319
aF0.5887789081
aF0.5256596215
aF0.4748982532
aF0.480533865
aF0.4251903063
aF0.5467450719
aF0.5823772462
aF0.586615885
aF0.3418026275
aF0.638107071
aF0.5102107255
aF0.438429322
aF0.4214744088
aF0.4469551282
aF0.649488237
aF0.4526240665
aF0.4317927926
aF0.5860236824
aF0.4388684924
aF0.4806523456
aF0.4777745674
aF0.5446387789
aF0.4774583997
aF0.6719883557
aF0.4558315782
aF0.4345464825
aF0.5905943819
aF0.7293659967
aF0.4574565349
aF0.5717457393
aF0.524358223
aF0.6499009732
aF0.4561853864
aF0.3763389049
aF0.5917920188
aF0.7243262142
aF0.5048645119
aF0.4212761983
aF0.5468039068
aF0.601139063
aF0.348340858
aF0.4078597056
aF0.3280027048
aF0.5580063537
aF0.5997344041
aF0.5209317013
aF0.5511810266
aF0.4608068342
aF0.5832838659
aF0.6362815943
aF0.4924508682
aF0.5945196906
aF0.3746159729
asVEco_1
p13
(lp14
F0.7072011872
aF0.5607793744
aF0.42041968
aF0.5415164486
aF0.4484804794
aF0.7237189689
aF0.8055100108
aF0.5429386453
aF0.5989159843
aF0.6141458758
aF0.4083234718
aF0.4941962342
aF0.4921635211
aF0.5038973487
aF0.454055824
aF0.4111209721
aF0.6222938295
aF0.6395189963
aF0.5333816391
aF0.5556852296
aF0.4748622218
aF0.5483312362
aF0.5301976217
aF0.5793292236
aF0.6103831355
aF0.4579946082
aF0.6648822784
aF0.9757800294
aF0.6548379199
aF1.0
aF0.4521095976
aF0.600007502
aF0.4174093044
aF0.6749923135
aF0.4706044996
aF0.5859515965
aF0.5324234899
aF0.4477541061
aF0.5312912981
aF0.3968054593
aF0.5149672546
aF0.5645496296
aF0.5019677668
aF0.5873631215
aF0.484780661
aF0.7529757784
aF0.6051561064
aF0.4377908097
aF0.5494787524
aF0.4823352262
aF0.7263329242
aF0.6389523823
aF0.7573987903
aF0.6976803542
aF0.4776090703
aF0.436677924
aF0.4073857165
aF0.4723507196
aF0.4679352553
aF0.5550815759
aF0.6033185713
aF0.570077098
aF0.5562475213
aF0.5124010187
aF0.5581304699
aF0.6735535778
aF0.5900526144
aF0.460177542
aF0.4884868293
aF0.6409650554
aF0.5787376355
aF0.5137446563
aF0.4553743922
aF0.698433612
aF0.541873351
aF0.6742383257
aF0.6147488699
aF0.6339666867
aF0.5033360676
aF0.6781740027
aF0.4526541919
aF0.5953751995
aF0.613701998
aF0.6880176209
aF0.541524697
aF0.5596277251
aF0.5424739863
aF0.5954695667
aF0.6021253884
aF0.706585097
aF0.4561351367
aF0.4160988592
aF0.5308694052
aF0.6394446178
aF0.3156302534
aF0.5009768243
aF0.5375755325
aF0.502190518
aF0.6093738946
aF0.6406093726
aF0.6875911733
aF0.4786288418
aF0.5833060932
aF0.6088084199
aF0.6511877227
aF0.5612342517
aF0.5564089221
aF0.643297197
aF0.4748457342
aF0.4312623538
aF0.4186086503
aF0.5642560999
aF0.4799819884
aF0.4374914793
aF0.6210469584
aF0.5166212204
aF0.5208174861
aF0.4595920765
aF0.5668832685
aF0.5091973767
aF0.4037211268
aF0.6828499791
aF0.4494507526
aF0.4497649614
aF0.7802671537
aF0.4887881823
aF0.6726553983
aF0.6513607963
aF0.4868157433
aF0.6696737731
aF0.5940924044
aF0.5258206333
aF0.4823458274
aF0.6280426455
aF0.4925289761
aF0.4534448587
aF0.4641218682
aF0.452137884
aF0.4257022185
aF0.4222808658
aF0.5832645813
aF0.6549174131
aF0.528079026
aF0.5669517081
aF0.4442023255
aF0.6408782522
aF0.6209689353
aF0.5087452064
aF0.4642900297
aF0.5700889438
aF0.5037142697
aF0.4347599633
aF0.6582427095
aF0.4393396851
aF0.8208909544
aF0.7595172439
aF0.5213380662
aF0.6626803802
aF0.4570676033
aF0.599432938
aF0.7559546129
aF0.5016523249
aF0.5299053069
aF0.4532574661
aF0.520681093
aF0.3933195212
aF0.6678514358
aF0.5847674323
aF0.5983260427
aF0.6708691393
aF0.6629385566
aF0.6321414017
aF0.6593154176
aF0.5333079344
aF0.5665513646
aF0.4870246036
aF0.4653724777
aF0.5229314447
aF0.5339708597
aF0.6289517457
aF0.6171850958
aF0.5954261407
aF0.6675121045
aF0.4999854388
aF0.607210222
aF0.609483057
aF0.6461369903
aF0.5784190679
aF0.5617074631
aF0.5493499573
aF0.5162052243
aF0.6128236934
aF0.6344273184
aF0.6831428672
aF0.3798549582
aF0.6784609228
aF0.5542534543
aF0.4831813746
aF0.4983012175
aF0.5226962397
aF0.6927576704
aF0.5281350053
aF0.5167542441
aF0.6465944629
aF0.5023684908
aF0.5238162554
aF0.5577983541
aF0.565761307
aF0.5212239768
aF0.7068255766
aF0.4872459348
aF0.5317084729
aF0.6508515333
aF0.7578883522
aF0.5199458876
aF0.6423266082
aF0.626302229
aF0.7236400635
aF0.5387014336
aF0.4276260135
aF0.6240800184
aF0.7944131468
aF0.5594761268
aF0.4763748357
aF0.6252664532
aF0.6845142712
aF0.4048198716
aF0.4609140095
aF0.3731346952
aF0.6307085095
aF0.7048715304
aF0.5663728025
aF0.6158706936
aF0.5181760716
aF0.6511414863
aF0.6998090581
aF0.5776183532
aF0.662654156
aF0.4230653032
asVEnv_4
p15
(lp16
F0.0876818499
aF0.0
aF0.0
aF0.0
aF0.0
aF0.0
aF0.0
aF0.0
aF0.0
aF0.0
aF0.0
aF0.0
aF0.1336419572
aF0.0
aF0.1826861337
aF0.0
aF0.0
aF0.0
aF0.0
aF0.0
aF0.0
aF0.124531787
aF0.0
aF0.0
aF0.0
aF0.0065067613
aF0.0
aF0.0
aF0.20303431
aF0.0
aF0.0
aF0.2954180067
aF0.0
aF0.0
aF0.072046692
aF0.0
aF0.0
aF0.0
aF0.0720482996
aF0.0
aF0.0
aF0.0
aF0.0
aF0.1547809537
aF0.0
aF0.0
aF0.0
aF0.0
aF0.0
aF0.2548811128
aF0.0
aF0.0
aF0.0
aF0.0
aF0.0
aF0.0
aF0.2066762997
aF0.0
aF0.1313378575
aF0.0
aF0.0
aF0.0844886293
aF0.0
aF0.0
aF0.0
aF0.0
aF0.0
aF0.0
aF0.0
aF0.265100033
aF0.0
aF0.0
aF0.0
aF0.2298884378
aF0.0914476486
aF0.1622089408
aF0.0
aF0.0
aF0.0
aF0.0
aF0.2608900829
aF0.0
aF0.0
aF0.0
aF0.0
aF0.0
aF0.0
aF0.1764499683
aF0.4739123228
aF0.0477223942
aF0.0
aF0.9701615582
aF0.0
aF0.0
aF0.3155234416
aF0.4168936677
aF0.5620010082
aF0.0
aF0.0
aF0.0
aF0.0
aF0.0
aF0.0
aF0.0
aF0.0
aF0.0503282497
aF0.0
aF0.0
aF0.2267781623
aF0.0
aF0.0251641294
aF0.0
aF0.0
aF0.0
aF0.0
aF0.0557002721
aF0.0001815542
aF0.5021736457
aF0.1553491873
aF0.0
aF0.0
aF0.0953595085
aF0.0
aF0.0
aF0.0
aF0.1249480434
aF0.0
aF0.0
aF0.1209134329
aF0.0
aF0.0
aF0.0
aF0.0540223427
aF0.0
aF0.1120822635
aF0.0
aF0.0
aF0.153512051
aF0.0
aF0.1186299575
aF0.0
aF0.0
aF0.0245207941
aF0.0
aF0.3072771055
aF0.0
aF0.4860080609
aF0.0
aF0.0
aF0.5946031536
aF0.034559038
aF0.0
aF0.0414207023
aF0.0
aF0.0
aF0.0
aF0.0
aF0.0
aF0.0
aF0.1732482545
aF0.4052015457
aF0.0
aF0.0
aF0.0
aF0.0
aF0.0
aF0.248593806
aF0.0
aF0.0
aF0.0379074445
aF0.0
aF0.0
aF0.0
aF0.0
aF0.0
aF0.0
aF0.0
aF0.0
aF0.7358196071
aF0.0
aF0.0
aF0.1774796058
aF0.0399313101
aF0.0
aF0.0
aF0.0812945085
aF0.0
aF0.0
aF0.0
aF0.0
aF0.1342318964
aF0.0
aF0.3192510519
aF0.0
aF0.0
aF0.0
aF0.1632382785
aF0.1062374811
aF0.0
aF0.0
aF0.0
aF0.0
aF0.0
aF0.120143383
aF0.0
aF0.0
aF0.3879950612
aF0.0
aF0.0
aF0.2992079804
aF0.1860679177
aF0.0
aF0.0
aF0.0
aF0.0
aF0.291078877
aF0.0
aF0.0484243923
aF0.0
aF0.0
aF0.4775384749
aF0.0
aF0.1789643073
aF0.0
aF1.0
aF0.0
aF0.0
aF0.1467784782
aF0.0
aF0.0
aF0.1587917373
aF0.0
aF0.0
aF0.0
aF0.0
aF0.0567532853
aF0.0
aF0.0
aF0.0362968704
asVEnv_1
p17
(lp18
F0.5656815108
aF0.5258061984
aF0.022756237
aF0.2571421272
aF0.0125838327
aF0.8029709959
aF0.3374532187
aF0.0561457725
aF0.2808882966
aF0.1825991215
aF0.0609743431
aF0.0
aF0.1064062764
aF0.0772509442
aF0.0776950542
aF0.0007626374
aF0.0682173295
aF0.4602676739
aF0.1514463565
aF0.0056642661
aF0.0309459807
aF0.1386827678
aF0.0
aF0.0941996401
aF0.2503303352
aF0.035654492
aF0.0
aF0.0
aF0.2545316369
aF0.0
aF0.0920699566
aF0.0689621735
aF0.0143508459
aF0.2067235089
aF0.0436828594
aF0.000363979
aF0.0308313402
aF0.0675756107
aF0.0704685852
aF0.0
aF0.0056354435
aF0.0563402318
aF0.254168517
aF0.0837580401
aF0.1644018557
aF0.0081318094
aF0.0612447006
aF0.0010922658
aF0.0029214427
aF0.0553621969
aF0.0
aF0.0065645297
aF0.0254691927
aF0.0
aF0.0
aF0.0713213979
aF0.0720269546
aF0.0169565349
aF0.1558722621
aF0.0237890087
aF0.1870894823
aF0.2752317855
aF0.0
aF0.0
aF0.0770230708
aF0.0724269903
aF0.0019634227
aF0.0070025497
aF0.021784227
aF0.0673510932
aF0.0159601284
aF0.0102883883
aF0.0837406393
aF0.0502196071
aF0.0358263646
aF0.0931964141
aF0.0
aF0.0
aF0.0042413069
aF0.0037588511
aF0.0449892201
aF0.1388031032
aF0.1452772548
aF0.3097385621
aF0.0
aF0.0243158867
aF0.0330936339
aF0.1740037578
aF0.144572492
aF0.0055753458
aF0.0646475215
aF0.1875336877
aF0.1035982572
aF9.54e-08
aF0.1007087648
aF0.2810234741
aF0.5389552099
aF0.0325028828
aF0.0100519249
aF0.0475396765
aF0.0196839452
aF0.0595752707
aF0.0532398872
aF0.0276148356
aF0.0691407623
aF0.0499787449
aF0.0
aF0.0305863221
aF0.0452456977
aF0.0167400879
aF0.1244942593
aF0.0430126512
aF0.0258497657
aF0.1455426603
aF0.0709890599
aF0.0211350768
aF6.0522e-05
aF0.0673476757
aF0.1887580632
aF0.4446201425
aF0.0015461194
aF0.0433693312
aF0.0197769359
aF0.1298901556
aF0.0348563341
aF0.0647929177
aF0.0308201697
aF0.0699599507
aF0.0217091874
aF0.1925985444
aF0.0377196102
aF0.1249261463
aF0.0118534255
aF0.0108547723
aF0.0408806002
aF0.2558786792
aF0.0320579128
aF0.0571746096
aF0.0006594142
aF0.0883789699
aF0.0
aF0.1498167279
aF0.0056471893
aF0.0068051316
aF0.0586767194
aF0.0237282481
aF0.2107766718
aF0.0839720221
aF0.112268252
aF0.1345906636
aF0.0881435531
aF0.0002621824
aF0.0170925208
aF0.0111751181
aF0.0194543479
aF0.0
aF0.007269561
aF0.0008963506
aF0.0018809852
aF0.0
aF0.2726412273
aF0.0
aF0.1451242145
aF0.078900091
aF0.0115098014
aF0.7891483124
aF0.1088727607
aF1.0
aF0.11613607
aF0.0969584622
aF0.0305072098
aF0.0678292484
aF0.001421101
aF0.0
aF0.0543930503
aF0.0867403995
aF0.0787285704
aF0.0013495148
aF0.2511808491
aF0.0053189748
aF0.0398738929
aF0.0270244432
aF0.1817120024
aF0.1025127586
aF0.0466281345
aF0.0276447114
aF0.0
aF0.0317691232
aF0.0
aF0.1531137798
aF0.0404805807
aF0.0411531091
aF0.0834109003
aF0.037245478
aF0.0
aF0.0453186443
aF0.0763005474
aF0.0663882464
aF0.3040518796
aF0.0504548895
aF0.0
aF0.0722625206
aF0.0346905592
aF0.0399274391
aF0.1368647923
aF0.0545404924
aF0.1244792231
aF0.0015714198
aF0.0197163547
aF0.107121036
aF0.0393193653
aF0.0
aF0.0585622606
aF0.0732641383
aF0.0
aF0.2210645882
aF0.0867418771
aF0.129688802
aF0.1272401149
aF0.0519069797
aF0.1621099602
aF0.0524214018
aF0.1571095464
aF0.0
aF0.0
aF0.0455441418
aF0.0416775289
aF0.2530088779
aF0.005104783
aF0.1388551205
aF0.07506896
aF0.1516665354
aF0.0060378799
aF0.015340674
aF0.0
aF0.013156273
aF0.0216767338
aF0.0436545021
aF0.0491250639
asVEnv_3
p19
(lp20
F0.0
aF0.0
aF0.0
aF0.0
aF0.0
aF0.0
aF0.0
aF0.0
aF0.0
aF0.0
aF0.0
aF0.0
aF0.0
aF0.0
aF0.0
aF0.0
aF0.0
aF0.0
aF0.0
aF0.0
aF0.0
aF0.0
aF0.0
aF0.0
aF0.0
aF0.0
aF0.0
aF0.0
aF0.0
aF0.0
aF0.0
aF0.0
aF0.0
aF0.0
aF0.0
aF0.0
aF0.0
aF0.0
aF0.0
aF0.0
aF0.0
aF0.0
aF0.0
aF0.0
aF0.0
aF0.0
aF0.0
aF0.0
aF0.0
aF0.0
aF0.0
aF0.0
aF0.0
aF0.0
aF0.0
aF0.0
aF0.0
aF0.0
aF0.0
aF0.0
aF0.0
aF0.0
aF0.0
aF0.0
aF0.0
aF0.0
aF0.0
aF0.0
aF0.0
aF0.0
aF0.0
aF0.0
aF0.0
aF0.0
aF0.0
aF0.0
aF0.0
aF0.0
aF0.0
aF0.0
aF0.0
aF0.0
aF0.0
aF0.0
aF0.0
aF0.0
aF0.0
aF0.0
aF0.0
aF0.0
aF0.0
aF0.0
aF0.0
aF0.0
aF0.0
aF0.0
aF0.0
aF0.0
aF0.0
aF0.0
aF0.0
aF0.0
aF0.0
aF0.0
aF0.0
aF0.0
aF0.0
aF0.0
aF0.0
aF0.0
aF0.0
aF0.0
aF0.0
aF0.0
aF0.0
aF0.0
aF0.0
aF0.0
aF0.0
aF0.0
aF0.0
aF0.0
aF0.0
aF0.0
aF0.0
aF0.0
aF0.0
aF0.0
aF0.0
aF0.0
aF0.0
aF0.0
aF0.0
aF0.0
aF0.0
aF0.0
aF0.0
aF0.0
aF0.0
aF0.0
aF0.0
aF0.0
aF0.0
aF0.0
aF0.0
aF0.0
aF0.0
aF0.0
aF0.0
aF0.0
aF0.0
aF0.0
aF0.0
aF0.0
aF0.0
aF0.0
aF0.0
aF0.0
aF0.0
aF0.0
aF0.0
aF0.0
aF0.0
aF0.0
aF0.0
aF0.0
aF0.0
aF0.0
aF0.0
aF0.0
aF0.0
aF0.0
aF0.0
aF0.0
aF0.0
aF0.0
aF0.0
aF0.0
aF0.0
aF0.0
aF0.0
aF0.0
aF0.0
aF0.0
aF0.0
aF0.0
aF0.0
aF0.0
aF0.0
aF0.0
aF0.0
aF0.0
aF0.0
aF0.0
aF0.0
aF0.0
aF0.0
aF0.0
aF0.0
aF0.0
aF0.0
aF0.0
aF0.0
aF0.0
aF0.0
aF0.0
aF0.0
aF0.0
aF0.0
aF0.0
aF0.0
aF0.0
aF0.0
aF0.0
aF0.0
aF0.0
aF0.0
aF0.0
aF0.0
aF0.0
aF0.0
aF0.0
aF0.0
aF0.0
aF0.0
aF0.0
aF0.0
aF0.0
aF0.0
aF0.0
aF0.0
aF0.0
aF0.0
aF0.0
aF0.0
aF0.0
aF0.0
aF0.0
aF0.0
asVEnv_2
p21
(lp22
F0.1461630466
aF0.2317769777
aF0.0789250908
aF0.2574531126
aF0.0323540129
aF0.4900978034
aF0.1600660514
aF0.1100495943
aF0.421249829
aF0.1938936285
aF0.1882467418
aF0.0
aF0.3050630371
aF0.1910137327
aF0.1377300933
aF0.0030238951
aF0.1588945438
aF0.4330077879
aF0.1980813523
aF0.0209465686
aF0.0713589565
aF0.2410238805
aF0.0
aF0.1881766307
aF0.2569096887
aF0.1484237038
aF0.0121024229
aF0.0
aF0.3179597962
aF0.0
aF0.2591397549
aF0.1425475527
aF0.033962849
aF0.631373028
aF0.1251367815
aF0.0008358341
aF0.0556928827
aF0.2638347524
aF0.1188345087
aF0.0
aF0.0134411534
aF0.1391295529
aF0.4937640865
aF0.1197100347
aF0.3454835862
aF0.0426353527
aF0.1145103785
aF0.0503348564
aF0.006353976
aF0.3544461617
aF0.0078392514
aF0.0127488925
aF0.0636463911
aF0.0164741337
aF0.0
aF0.2062428458
aF0.2265906874
aF0.0652782395
aF0.4489273403
aF0.032116727
aF0.2002092986
aF0.3781215224
aF0.0
aF0.0329137183
aF0.0579829487
aF0.1163857599
aF0.002159181
aF0.00840512
aF0.0465174521
aF0.0907982639
aF0.0243621322
aF0.0252934128
aF0.1321049235
aF0.0651705323
aF0.0578872508
aF0.102867191
aF0.0089765152
aF0.0335353978
aF0.0163005582
aF0.0086747254
aF0.2310664662
aF0.1721837781
aF0.217826662
aF0.3009434951
aF0.0357687887
aF0.1371904176
aF0.0725291926
aF0.1953821976
aF0.176463789
aF0.0277493028
aF0.0747962179
aF0.3471453711
aF0.1506722941
aF3.645e-07
aF0.0839812514
aF0.1932429762
aF0.9842290067
aF0.0654739799
aF0.0213915301
aF0.0724955865
aF0.0599511664
aF0.1214110144
aF0.0394668517
aF0.026932917
aF0.1090715134
aF0.1101958926
aF0.0288056474
aF0.0590699615
aF0.0604957099
aF0.0412445257
aF0.4245932002
aF0.0814316674
aF0.0421834432
aF0.404372455
aF0.0592541939
aF0.1110852016
aF0.0003029839
aF0.1761941502
aF0.1462365337
aF0.6191878264
aF0.0052844728
aF0.0585415308
aF0.0398511281
aF0.193347996
aF0.0995079613
aF0.1565677195
aF0.1223931189
aF0.0851539202
aF0.0549632653
aF0.1547152363
aF0.0451107263
aF0.1920763532
aF0.0477236016
aF0.0170997774
aF0.0496543681
aF0.2449350488
aF0.0596773205
aF0.0876647795
aF0.0012769873
aF0.1868239687
aF0.0
aF0.1432547846
aF0.0594631304
aF0.0113929479
aF0.1205441399
aF0.0461402633
aF0.2412376388
aF0.1280605424
aF0.2559896787
aF0.1850800846
aF0.1430409046
aF0.0006041575
aF0.0162695513
aF0.0473083569
aF0.0343228898
aF0.0271684297
aF0.0098319599
aF0.0112667863
aF0.0258922741
aF0.0651174364
aF0.2913815073
aF0.0097975597
aF0.1853911276
aF0.1314572786
aF0.0152322887
aF1.0
aF0.0680716754
aF0.3238444891
aF0.152557676
aF0.1737960365
aF0.039869124
aF0.0832036766
aF0.0105401907
aF0.0
aF0.0914732021
aF0.1866858683
aF0.2027304073
aF0.0118120402
aF0.3476462258
aF0.0048085189
aF0.1011869571
aF0.0389322998
aF0.1842156661
aF0.1080514302
aF0.0625184055
aF0.0920162305
aF0.0125556104
aF0.1194092391
aF0.2675700747
aF0.308637096
aF0.1269343537
aF0.0644775762
aF0.0944066414
aF0.0339308286
aF0.0
aF0.0762189949
aF0.1084249434
aF0.1125112434
aF0.21101573
aF0.1399332455
aF0.0183587535
aF0.127807637
aF0.0807728396
aF0.0715974589
aF0.2391457046
aF0.0520208067
aF0.1886919031
aF0.1323656703
aF0.0235671419
aF0.0639851262
aF0.2000782824
aF0.0038559665
aF0.0850034812
aF0.1096950691
aF0.0
aF0.2669418324
aF0.0943761724
aF0.1695980725
aF0.1520882618
aF0.1253169528
aF0.2397627606
aF0.0825688951
aF0.2243799538
aF0.0
aF0.0697798432
aF0.0883256432
aF0.1133812981
aF0.4557315003
aF0.0478238416
aF0.08582583
aF0.1020292328
aF0.1617037939
aF0.0137750225
aF0.0385206301
aF0.0304537339
aF0.0235563617
aF0.0390666232
aF0.0633822832
aF0.2569545401
as.